; Function Attrs: mustprogress nofree norecurse nosync nounwind willreturn memory(argmem: write, inaccessiblemem: write) uwtable
define dso_local noundef nonnull ptr @_ZN4absl16numbers_internal15FastIntToBufferEjPc(i32 noundef %0, ptr noundef writeonly captures(ret: address, provenance) initializes((0, 1)) %1) local_unnamed_addr #5 personality ptr @__gxx_personality_v0 {
  %3 = icmp ult i32 %0, 10
  br i1 %3, label %4, label %8

4:                                                ; preds = %2
  %5 = trunc nuw i32 %0 to i8
  %6 = or disjoint i8 %5, 48
  store i8 %6, ptr %1, align 1, !tbaa !8
  %7 = getelementptr inbounds nuw i8, ptr %1, i64 1
  br label %_ZN4absl12_GLOBAL__N_113EncodeFullU32EjPc.exit

8:                                                ; preds = %2
  %9 = icmp ult i32 %0, 100000000
  br i1 %9, label %10, label %38

10:                                               ; preds = %8
  %11 = udiv i32 %0, 10000
  %12 = urem i32 %0, 10000
  %13 = zext nneg i32 %11 to i64
  %14 = zext nneg i32 %12 to i64
  %15 = shl nuw nsw i64 %14, 32
  %16 = or disjoint i64 %15, %13
  %17 = mul nuw nsw i64 %16, 10486
  %18 = lshr i64 %17, 20
  %19 = and i64 %18, 545460846719
  %.neg.i = mul nsw i64 %19, -100
  %20 = add nsw i64 %.neg.i, %16
  %21 = shl nsw i64 %20, 16
  %22 = add nsw i64 %21, %19
  %23 = mul i64 %22, 103
  %24 = lshr i64 %23, 10
  %25 = and i64 %24, 4222189076152335
  %.neg16.i = mul i64 %25, 72057594037927926
  %26 = add i64 %.neg16.i, %22
  %27 = shl i64 %26, 8
  %28 = add i64 %27, %25
  %29 = icmp ne i64 %28, 0
  tail call void @llvm.assume(i1 %29)
  %30 = tail call range(i64 0, 65) i64 @llvm.cttz.i64(i64 %28, i1 true)
  %31 = and i64 %30, 56
  %32 = add i64 %28, 3472328296227680304
  %33 = lshr i64 %32, %31
  store i64 %33, ptr %1, align 1
  %34 = getelementptr inbounds nuw i8, ptr %1, i64 8
  %35 = lshr i64 %30, 3
  %36 = sub nsw i64 0, %35
  %37 = getelementptr inbounds i8, ptr %34, i64 %36
  br label %_ZN4absl12_GLOBAL__N_113EncodeFullU32EjPc.exit

38:                                               ; preds = %8
  %39 = udiv i32 %0, 100000000
  %40 = urem i32 %0, 100000000
  %41 = udiv i32 %40, 10000
  %42 = urem i32 %40, 10000
  %43 = zext nneg i32 %41 to i64
  %44 = zext nneg i32 %42 to i64
  %45 = shl nuw nsw i64 %44, 32
  %46 = or disjoint i64 %45, %43
  %47 = mul nuw nsw i64 %46, 10486
  %48 = lshr i64 %47, 20
  %49 = and i64 %48, 545460846719
  %.neg.i3 = mul nsw i64 %49, -100
  %50 = add nsw i64 %.neg.i3, %46
  %51 = shl nsw i64 %50, 16
  %52 = add nsw i64 %51, %49
  %53 = mul i64 %52, 103
  %54 = lshr i64 %53, 10
  %55 = and i64 %54, 4222189076152335
  %.neg16.i4 = mul i64 %55, 72057594037927926
  %56 = add i64 %.neg16.i4, %52
  %57 = shl i64 %56, 8
  %58 = or disjoint i64 %55, 3472328296227680304
  %59 = add i64 %58, %57
  %60 = add nsw i32 %39, -10
  %61 = ashr i32 %60, 8
  %narrow.i = mul nuw nsw i32 %39, 103
  %62 = lshr i32 %narrow.i, 10
  %.neg.i5 = mul nsw i32 %62, -10
  %63 = add nsw i32 %.neg.i5, %39
  %64 = or disjoint i32 %62, 12336
  %65 = shl nsw i32 %63, 8
  %66 = add nsw i32 %64, %65
  %67 = and i32 %61, 8
  %68 = lshr i32 %66, %67
  %69 = trunc nuw nsw i32 %68 to i16
  store i16 %69, ptr %1, align 1
  %70 = getelementptr inbounds nuw i8, ptr %1, i64 2
  %71 = sext i32 %61 to i64
  %72 = getelementptr inbounds i8, ptr %70, i64 %71
  store i64 %59, ptr %72, align 1
  %73 = getelementptr inbounds nuw i8, ptr %72, i64 8
  br label %_ZN4absl12_GLOBAL__N_113EncodeFullU32EjPc.exit

_ZN4absl12_GLOBAL__N_113EncodeFullU32EjPc.exit:   ; preds = %4, %10, %38
  %.0.i = phi ptr [ %7, %4 ], [ %37, %10 ], [ %73, %38 ]
  store i8 0, ptr %.0.i, align 1, !tbaa !8
  ret ptr %.0.i
}